target datalayout = "e-m:e-p270:32:32-p271:32:32-p272:64:64-i64:64-i128:128-f80:128-n8:16:32:64-S128"
target triple = "x86_64-pc-linux-gnu"

%struct.nstime_t = type { i64, i32 }
%struct._packet_info = type { ptr, ptr, i32, i32, %struct.nstime_t, %struct.nstime_t, %struct.nstime_t, i8, ptr, ptr, ptr, ptr, %struct._address, %struct._address, %struct._address, %struct._address, %struct._address, %struct._address, i32, ptr, i8, [3 x i8], %struct.anon, i32, i32, i32, i32, ptr, i8, ptr, ptr, i16, i16, i32, i32, i16, i32, i32, ptr, ptr, ptr, i8, i8, i16, i16, i16, i32, i16, i16, ptr, ptr, ptr, ptr, ptr, i32, i32 }
%struct._address = type { i32, i32, ptr, ptr }
%struct.anon = type { i8, [3 x i8] }
%struct._bluetooth_data_t = type { i32, i32, ptr, ptr, ptr, ptr, ptr, ptr, ptr, ptr, ptr, ptr, ptr, i32, %union.anon }
%union.anon = type { ptr }
%struct._bluetooth_hci_summary_tap_t = type { i32, i32, i16, i8, i8, i8, i8, i8, i8, ptr, i32 }

@hf_bthci_evt_hardware_code = internal global i32 0, align 4
@bluetooth_hci_summary_tap = external global i32, align 4

; Function Attrs: null_pointer_is_valid sspstrong uwtable
define internal i32 @dissect_bthci_evt_hardware_error(ptr noundef %0, i32 noundef %1, ptr noundef %2, ptr noundef %3, ptr noundef %4) #1 {
  %6 = alloca ptr, align 8
  %7 = alloca i32, align 4
  %8 = alloca ptr, align 8
  %9 = alloca ptr, align 8
  %10 = alloca ptr, align 8
  %11 = alloca ptr, align 8
  store ptr %0, ptr %6, align 8
  store i32 %1, ptr %7, align 4
  store ptr %2, ptr %8, align 8
  store ptr %3, ptr %9, align 8
  store ptr %4, ptr %10, align 8
  %12 = load ptr, ptr %9, align 8
  %13 = load i32, ptr @hf_bthci_evt_hardware_code, align 4
  %14 = load ptr, ptr %6, align 8
  %15 = load i32, ptr %7, align 4
  %16 = call ptr @proto_tree_add_item(ptr noundef %12, i32 noundef %13, ptr noundef %14, i32 noundef %15, i32 noundef 1, i32 noundef -2147483648)
  %17 = load i32, ptr %7, align 4
  %18 = add i32 %17, 1
  store i32 %18, ptr %7, align 4
  %19 = load i32, ptr @bluetooth_hci_summary_tap, align 4
  %20 = call zeroext i1 @have_tap_listener(i32 noundef %19)
  br i1 %20, label %21, label %49

21:                                               ; preds = %5
  call void @llvm.lifetime.start.p0(i64 8, ptr %11) #11
  %22 = load ptr, ptr %8, align 8
  %23 = getelementptr inbounds nuw %struct._packet_info, ptr %22, i32 0, i32 51
  %24 = load ptr, ptr %23, align 8
  %25 = call noalias ptr @wmem_alloc(ptr noundef %24, i64 noundef 32) #13
  store ptr %25, ptr %11, align 8
  %26 = load ptr, ptr %10, align 8
  %27 = getelementptr inbounds nuw %struct._bluetooth_data_t, ptr %26, i32 0, i32 0
  %28 = load i32, ptr %27, align 8
  %29 = load ptr, ptr %11, align 8
  %30 = getelementptr inbounds nuw %struct._bluetooth_hci_summary_tap_t, ptr %29, i32 0, i32 0
  store i32 %28, ptr %30, align 8
  %31 = load ptr, ptr %10, align 8
  %32 = getelementptr inbounds nuw %struct._bluetooth_data_t, ptr %31, i32 0, i32 1
  %33 = load i32, ptr %32, align 4
  %34 = load ptr, ptr %11, align 8
  %35 = getelementptr inbounds nuw %struct._bluetooth_hci_summary_tap_t, ptr %34, i32 0, i32 1
  store i32 %33, ptr %35, align 4
  %36 = load ptr, ptr %11, align 8
  %37 = getelementptr inbounds nuw %struct._bluetooth_hci_summary_tap_t, ptr %36, i32 0, i32 10
  store i32 10, ptr %37, align 8
  %38 = load ptr, ptr %6, align 8
  %39 = load i32, ptr %7, align 4
  %40 = sub i32 %39, 1
  %41 = call zeroext i8 @tvb_get_uint8(ptr noundef %38, i32 noundef %40)
  %42 = load ptr, ptr %11, align 8
  %43 = getelementptr inbounds nuw %struct._bluetooth_hci_summary_tap_t, ptr %42, i32 0, i32 8
  store i8 %41, ptr %43, align 1
  %44 = load ptr, ptr %11, align 8
  %45 = getelementptr inbounds nuw %struct._bluetooth_hci_summary_tap_t, ptr %44, i32 0, i32 9
  store ptr null, ptr %45, align 8
  %46 = load i32, ptr @bluetooth_hci_summary_tap, align 4
  %47 = load ptr, ptr %8, align 8
  %48 = load ptr, ptr %11, align 8
  call void @tap_queue_packet(i32 noundef %46, ptr noundef %47, ptr noundef %48)
  call void @llvm.lifetime.end.p0(i64 8, ptr %11) #11
  br label %49

49:                                               ; preds = %21, %5
  %50 = load i32, ptr %7, align 4
  ret i32 %50
}