; Function Attrs: null_pointer_is_valid sspstrong uwtable
define internal fastcc void @dissect_bthci_evt_hardware_error(ptr noundef %0, ptr noundef %1, ptr noundef %2, ptr noundef nonnull readonly captures(none) %3) unnamed_addr #1 {
  %5 = load i32, ptr @hf_bthci_evt_hardware_code, align 4
  %6 = tail call ptr @proto_tree_add_item(ptr noundef %2, i32 noundef %5, ptr noundef %0, i32 noundef 2, i32 noundef 1, i32 noundef -2147483648)
  %7 = load i32, ptr @bluetooth_hci_summary_tap, align 4
  %8 = tail call zeroext i1 @have_tap_listener(i32 noundef %7)
  br i1 %8, label %9, label %22

9:                                                ; preds = %4
  %10 = getelementptr inbounds nuw i8, ptr %1, i64 408
  %11 = load ptr, ptr %10, align 8
  %12 = tail call noalias dereferenceable_or_null(32) ptr @wmem_alloc(ptr noundef %11, i64 noundef 32) #11
  %13 = load i32, ptr %3, align 8
  store i32 %13, ptr %12, align 8
  %14 = getelementptr inbounds nuw i8, ptr %3, i64 4
  %15 = load i32, ptr %14, align 4
  %16 = getelementptr inbounds nuw i8, ptr %12, i64 4
  store i32 %15, ptr %16, align 4
  %17 = getelementptr inbounds nuw i8, ptr %12, i64 24
  store i32 10, ptr %17, align 8
  %18 = tail call zeroext i8 @tvb_get_uint8(ptr noundef %0, i32 noundef 2)
  %19 = getelementptr inbounds nuw i8, ptr %12, i64 15
  store i8 %18, ptr %19, align 1
  %20 = getelementptr inbounds nuw i8, ptr %12, i64 16
  store ptr null, ptr %20, align 8
  %21 = load i32, ptr @bluetooth_hci_summary_tap, align 4
  tail call void @tap_queue_packet(i32 noundef %21, ptr noundef %1, ptr noundef %12)
  br label %22

22:                                               ; preds = %9, %4
  ret void
}